; Function Attrs: nounwind uwtable
define dso_local ptr @gistunion(ptr noundef %0, ptr noundef readonly captures(none) %1, i32 noundef %2, ptr noundef %3) local_unnamed_addr #0 {
  %5 = alloca %struct.GISTENTRY, align 8
  %6 = alloca [32 x i64], align 16
  %7 = alloca [32 x i64], align 16
  %8 = alloca [32 x i8], align 16
  call void @llvm.lifetime.start.p0(i64 256, ptr nonnull %7) #11
  call void @llvm.lifetime.start.p0(i64 32, ptr nonnull %8) #11
  call void @gistMakeUnionItVec(ptr noundef %3, ptr noundef %1, i32 noundef %2, ptr noundef nonnull %7, ptr noundef nonnull %8)
  call void @llvm.lifetime.start.p0(i64 256, ptr nonnull %6) #11
  %9 = getelementptr inbounds nuw i8, ptr %0, i64 328
  %10 = load ptr, ptr %9, align 8
  %11 = getelementptr inbounds nuw i8, ptr %10, i64 10
  %12 = load i16, ptr %11, align 2
  %13 = icmp sgt i16 %12, 0
  br i1 %13, label %.lr.ph.i.i, label %gistFormTuple.exit

.lr.ph.i.i:                                       ; preds = %4
  %14 = getelementptr inbounds nuw i8, ptr %5, i64 8
  %15 = getelementptr inbounds nuw i8, ptr %5, i64 16
  %16 = getelementptr inbounds nuw i8, ptr %5, i64 24
  %17 = getelementptr inbounds nuw i8, ptr %5, i64 26
  %18 = getelementptr inbounds nuw i8, ptr %3, i64 3112
  %19 = getelementptr inbounds nuw i8, ptr %3, i64 13864
  %20 = ptrtoint ptr %5 to i64
  br label %21

21:                                               ; preds = %42, %.lr.ph.i.i
  %.pre10.i = phi ptr [ %10, %.lr.ph.i.i ], [ %.pre11.i, %42 ]
  %22 = phi ptr [ %10, %.lr.ph.i.i ], [ %43, %42 ]
  %indvars.iv.i.i = phi i64 [ 0, %.lr.ph.i.i ], [ %indvars.iv.next.i.i, %42 ]
  %23 = getelementptr inbounds nuw i8, ptr %8, i64 %indvars.iv.i.i
  %24 = load i8, ptr %23, align 1, !range !12, !noundef !13
  %25 = trunc nuw i8 %24 to i1
  br i1 %25, label %26, label %28

26:                                               ; preds = %21
  %27 = getelementptr inbounds nuw i64, ptr %6, i64 %indvars.iv.i.i
  store i64 0, ptr %27, align 8
  br label %42

28:                                               ; preds = %21
  call void @llvm.lifetime.start.p0(i64 32, ptr nonnull %5) #11
  %29 = getelementptr inbounds nuw i64, ptr %7, i64 %indvars.iv.i.i
  %30 = load i64, ptr %29, align 8
  store i64 %30, ptr %5, align 8
  store ptr %0, ptr %14, align 8
  store ptr null, ptr %15, align 8
  store i16 0, ptr %16, align 8
  store i8 0, ptr %17, align 2
  %31 = getelementptr inbounds nuw [32 x %struct.FmgrInfo], ptr %18, i64 0, i64 %indvars.iv.i.i
  %32 = getelementptr inbounds nuw i8, ptr %31, i64 8
  %33 = load i32, ptr %32, align 8
  %.not.i.i = icmp eq i32 %33, 0
  br i1 %.not.i.i, label %39, label %34

34:                                               ; preds = %28
  %35 = getelementptr inbounds nuw [32 x i32], ptr %19, i64 0, i64 %indvars.iv.i.i
  %36 = load i32, ptr %35, align 4
  %37 = call i64 @FunctionCall1Coll(ptr noundef nonnull %31, i32 noundef %36, i64 noundef %20) #11
  %38 = inttoptr i64 %37 to ptr
  %.pre.i.i = load i64, ptr %38, align 8
  %.pre.pre.i = load ptr, ptr %9, align 8
  br label %39

39:                                               ; preds = %34, %28
  %.pre.i = phi ptr [ %.pre.pre.i, %34 ], [ %.pre10.i, %28 ]
  %40 = phi i64 [ %.pre.i.i, %34 ], [ %30, %28 ]
  %41 = getelementptr inbounds nuw i64, ptr %6, i64 %indvars.iv.i.i
  store i64 %40, ptr %41, align 8
  call void @llvm.lifetime.end.p0(i64 32, ptr nonnull %5) #11
  br label %42

42:                                               ; preds = %39, %26
  %.pre11.i = phi ptr [ %.pre.i, %39 ], [ %.pre10.i, %26 ]
  %43 = phi ptr [ %.pre.i, %39 ], [ %22, %26 ]
  %indvars.iv.next.i.i = add nuw nsw i64 %indvars.iv.i.i, 1
  %44 = getelementptr inbounds nuw i8, ptr %43, i64 10
  %45 = load i16, ptr %44, align 2
  %46 = sext i16 %45 to i64
  %47 = icmp slt i64 %indvars.iv.next.i.i, %46
  br i1 %47, label %21, label %gistFormTuple.exit, !llvm.loop !15

gistFormTuple.exit:                               ; preds = %42, %4
  %.in.i = getelementptr inbounds nuw i8, ptr %3, i64 24
  %48 = load ptr, ptr %.in.i, align 8
  %49 = call ptr @index_form_tuple(ptr noundef %48, ptr noundef nonnull %6, ptr noundef nonnull %8) #11
  %50 = getelementptr inbounds nuw i8, ptr %49, i64 4
  store i16 -1, ptr %50, align 2
  call void @llvm.lifetime.end.p0(i64 256, ptr nonnull %6) #11
  call void @llvm.lifetime.end.p0(i64 32, ptr nonnull %8) #11
  call void @llvm.lifetime.end.p0(i64 256, ptr nonnull %7) #11
  ret ptr %49
}